target datalayout = "e-m:e-p270:32:32-p271:32:32-p272:64:64-i64:64-i128:128-f80:128-n8:16:32:64-S128"
target triple = "x86_64-pc-linux-gnu"

; Function Attrs: mustprogress nounwind uwtable
define hidden noundef i32 @_ZN2os5Linux18commit_memory_implEPcmmb(ptr noundef %0, i64 noundef %1, i64 noundef %2, i1 noundef zeroext %3) #1 align 2 {
  %5 = alloca ptr, align 8
  %6 = alloca i64, align 8
  %7 = alloca i64, align 8
  %8 = alloca i8, align 1
  %9 = alloca i32, align 4
  store ptr %0, ptr %5, align 8
  store i64 %1, ptr %6, align 8
  store i64 %2, ptr %7, align 8
  %10 = zext i1 %3 to i8
  store i8 %10, ptr %8, align 1
  %11 = load ptr, ptr %5, align 8
  %12 = load i64, ptr %6, align 8
  %13 = load i8, ptr %8, align 1
  %14 = trunc i8 %13 to i1
  %15 = call noundef i32 @_ZN2os5Linux18commit_memory_implEPcmb(ptr noundef %11, i64 noundef %12, i1 noundef zeroext %14)
  store i32 %15, ptr %9, align 4
  %16 = load i32, ptr %9, align 4
  %17 = icmp eq i32 %16, 0
  br i1 %17, label %18, label %22

18:                                               ; preds = %4
  %19 = load ptr, ptr %5, align 8
  %20 = load i64, ptr %6, align 8
  %21 = load i64, ptr %7, align 8
  call void @_ZN2os14realign_memoryEPcmm(ptr noundef %19, i64 noundef %20, i64 noundef %21)
  br label %22

22:                                               ; preds = %18, %4
  %23 = load i32, ptr %9, align 4
  ret i32 %23
}