; Function Attrs: mustprogress nounwind uwtable
define hidden noundef i32 @_ZN2os5Linux18commit_memory_implEPcmmb(ptr noundef %0, i64 noundef %1, i64 noundef %2, i1 noundef zeroext %3) local_unnamed_addr #0 align 2 {
  %5 = tail call noundef i32 @_ZN2os5Linux18commit_memory_implEPcmb(ptr noundef %0, i64 noundef %1, i1 noundef zeroext %3)
  %6 = icmp eq i32 %5, 0
  br i1 %6, label %7, label %8

7:                                                ; preds = %4
  tail call void @_ZN2os14realign_memoryEPcmm(ptr noundef %0, i64 noundef %1, i64 noundef %2) #26
  br label %8

8:                                                ; preds = %7, %4
  ret i32 %5
}